target datalayout = "e-m:e-p270:32:32-p271:32:32-p272:64:64-i64:64-i128:128-f80:128-n8:16:32:64-S128"
target triple = "x86_64-pc-linux-gnu"

%struct.SDL_Mouse = type { ptr, ptr, ptr, ptr, ptr, ptr, ptr, ptr, ptr, ptr, ptr, ptr, ptr, ptr, i8, float, float, ptr, float, float, float, float, float, float, float, float, double, double, i8, i8, i8, i8, i8, i8, i8, i8, i64, i8, float, i8, float, i8, i32, i32, i8, i8, i8, i8, i8, i8, i8, i8, i8, ptr, i32, ptr, ptr, ptr, ptr, i8, ptr }

@SDL_mouse = internal global %struct.SDL_Mouse zeroinitializer, align 8

; Function Attrs: nounwind uwtable
define hidden ptr @SDL_GetMouse() #0 {
  ret ptr @SDL_mouse
}

; Function Attrs: nounwind uwtable
define hidden void @SDL_DisableMouseWarpEmulation() #0 {
  %1 = alloca ptr, align 8
  call void @llvm.lifetime.start.p0(i64 8, ptr %1) #7
  %2 = call ptr @SDL_GetMouse()
  store ptr %2, ptr %1, align 8
  %3 = load ptr, ptr %1, align 8
  %4 = getelementptr inbounds nuw %struct.SDL_Mouse, ptr %3, i32 0, i32 34
  %5 = load i8, ptr %4, align 2, !range !3, !noundef !4
  %6 = trunc i8 %5 to i1
  br i1 %6, label %7, label %9

7:                                                ; preds = %0
  %8 = call zeroext i1 @SDL_SetRelativeMouseMode(i1 noundef zeroext false)
  br label %9

9:                                                ; preds = %7, %0
  %10 = load ptr, ptr %1, align 8
  %11 = getelementptr inbounds nuw %struct.SDL_Mouse, ptr %10, i32 0, i32 35
  store i8 1, ptr %11, align 1
  call void @llvm.lifetime.end.p0(i64 8, ptr %1) #7
  ret void
}