; Function Attrs: nounwind uwtable
define hidden void @SDL_DisableMouseWarpEmulation() local_unnamed_addr #0 {
  %1 = load i8, ptr getelementptr inbounds nuw (i8, ptr @SDL_mouse, i64 190), align 2, !range !3, !noundef !4
  %2 = trunc nuw i8 %1 to i1
  br i1 %2, label %3, label %5

3:                                                ; preds = %0
  %4 = tail call zeroext i1 @SDL_SetRelativeMouseMode(i1 noundef zeroext false)
  br label %5

5:                                                ; preds = %3, %0
  store i8 1, ptr getelementptr inbounds nuw (i8, ptr @SDL_mouse, i64 191), align 1
  ret void
}